; Function Attrs: mustprogress nounwind uwtable
define void @_ZN5osgeo4proj9operation15OperationMethodD2Ev(ptr noundef nonnull align 8 dereferenceable(56) initializes((0, 8), (16, 32), (40, 48)) %0) unnamed_addr #1 align 2 personality ptr @__gxx_personality_v0 {
  store ptr getelementptr inbounds nuw inrange(-16, 48) (i8, ptr @_ZTVN5osgeo4proj9operation15OperationMethodE, i64 16), ptr %0, align 8, !tbaa !3
  %2 = getelementptr inbounds nuw i8, ptr %0, i64 16
  store ptr getelementptr inbounds nuw inrange(-16, 24) (i8, ptr @_ZTVN5osgeo4proj9operation15OperationMethodE, i64 80), ptr %2, align 8, !tbaa !3
  %3 = getelementptr inbounds nuw i8, ptr %0, i64 24
  store ptr getelementptr inbounds nuw inrange(-16, 24) (i8, ptr @_ZTVN5osgeo4proj9operation15OperationMethodE, i64 120), ptr %3, align 8, !tbaa !3
  %4 = getelementptr inbounds nuw i8, ptr %0, i64 40
  store ptr getelementptr inbounds nuw inrange(-16, 24) (i8, ptr @_ZTVN5osgeo4proj9operation15OperationMethodE, i64 160), ptr %4, align 8, !tbaa !3
  %5 = getelementptr inbounds nuw i8, ptr %0, i64 48
  %6 = load ptr, ptr %5, align 8, !tbaa !211
  %.not.i = icmp eq ptr %6, null
  br i1 %.not.i, label %_ZNSt10unique_ptrIN5osgeo4proj9operation15OperationMethod7PrivateESt14default_deleteIS4_EED2Ev.exit, label %_ZNKSt14default_deleteIN5osgeo4proj9operation15OperationMethod7PrivateEEclEPS4_.exit.i

_ZNKSt14default_deleteIN5osgeo4proj9operation15OperationMethod7PrivateEEclEPS4_.exit.i: ; preds = %1
  tail call void @_ZN5osgeo4proj9operation15OperationMethod7PrivateD2Ev(ptr noundef nonnull align 8 dereferenceable(128) %6) #46
  tail call void @_ZdlPvm(ptr noundef nonnull %6, i64 noundef 128) #47
  br label %_ZNSt10unique_ptrIN5osgeo4proj9operation15OperationMethod7PrivateESt14default_deleteIS4_EED2Ev.exit

_ZNSt10unique_ptrIN5osgeo4proj9operation15OperationMethod7PrivateESt14default_deleteIS4_EED2Ev.exit: ; preds = %1, %_ZNKSt14default_deleteIN5osgeo4proj9operation15OperationMethod7PrivateEEclEPS4_.exit.i
  store ptr null, ptr %5, align 8, !tbaa !211
  tail call void @_ZN5osgeo4proj2io15IJSONExportableD2Ev(ptr noundef nonnull align 8 dereferenceable(8) %4) #46
  tail call void @_ZN5osgeo4proj6common16IdentifiedObjectD2Ev(ptr noundef nonnull align 8 dereferenceable(40) %0) #46
  ret void
}